target datalayout = "e-m:e-p270:32:32-p271:32:32-p272:64:64-i64:64-i128:128-f80:128-n8:16:32:64-S128"
target triple = "x86_64-pc-linux-gnu"

%"class.ozz::log::Logger" = type <{ ptr, i8, [7 x i8] }>

@_ZN3ozz3log12_GLOBAL__N_19log_levelE = internal global i32 1, align 4

; Function Attrs: mustprogress uwtable
define linkonce_odr dso_local noundef ptr @_ZN3ozz3NewINSt7__cxx1119basic_ostringstreamIcSt11char_traitsIcESaIcEEEJEEEPT_DpOT0_() #6 comdat {
  %1 = alloca ptr, align 8
  call void @llvm.lifetime.start.p0(i64 8, ptr %1) #3
  %2 = call noundef ptr @_ZN3ozz6memory17default_allocatorEv()
  %3 = load ptr, ptr %2, align 8, !tbaa !25
  %4 = getelementptr inbounds ptr, ptr %3, i64 2
  %5 = load ptr, ptr %4, align 8
  %6 = call noundef ptr %5(ptr noundef nonnull align 8 dereferenceable(8) %2, i64 noundef 376, i64 noundef 8)
  store ptr %6, ptr %1, align 8, !tbaa !27
  %7 = load ptr, ptr %1, align 8, !tbaa !27
  call void @_ZNSt7__cxx1119basic_ostringstreamIcSt11char_traitsIcESaIcEEC1Ev(ptr noundef nonnull align 8 dereferenceable(112) %7)
  call void @llvm.lifetime.end.p0(i64 8, ptr %1) #3
  ret ptr %7
}

; Function Attrs: mustprogress nounwind uwtable
define dso_local noundef i32 @_ZN3ozz3log8GetLevelEv() #4 {
  %1 = load i32, ptr @_ZN3ozz3log12_GLOBAL__N_19log_levelE, align 4, !tbaa !4
  ret i32 %1
}

; Function Attrs: mustprogress uwtable
define dso_local void @_ZN3ozz3log6LoggerC2ERSoNS0_5LevelE(ptr noundef nonnull align 8 dereferenceable(9) %0, ptr noundef nonnull align 8 dereferenceable(8) %1, i32 noundef %2) unnamed_addr #6 align 2 {
  %4 = alloca ptr, align 8
  %5 = alloca ptr, align 8
  %6 = alloca i32, align 4
  store ptr %0, ptr %4, align 8, !tbaa !11
  store ptr %1, ptr %5, align 8, !tbaa !13
  store i32 %2, ptr %6, align 4, !tbaa !4
  %7 = load ptr, ptr %4, align 8
  %8 = getelementptr inbounds nuw %"class.ozz::log::Logger", ptr %7, i32 0, i32 0
  %9 = load i32, ptr %6, align 4, !tbaa !4
  %10 = call noundef i32 @_ZN3ozz3log8GetLevelEv()
  %11 = icmp sle i32 %9, %10
  br i1 %11, label %12, label %14

12:                                               ; preds = %3
  %13 = load ptr, ptr %5, align 8, !tbaa !13
  br label %16

14:                                               ; preds = %3
  %15 = call noundef ptr @_ZN3ozz3NewINSt7__cxx1119basic_ostringstreamIcSt11char_traitsIcESaIcEEEJEEEPT_DpOT0_()
  br label %16

16:                                               ; preds = %14, %12
  %17 = phi ptr [ %13, %12 ], [ %15, %14 ]
  store ptr %17, ptr %8, align 8, !tbaa !13
  %18 = getelementptr inbounds nuw %"class.ozz::log::Logger", ptr %7, i32 0, i32 1
  %19 = getelementptr inbounds nuw %"class.ozz::log::Logger", ptr %7, i32 0, i32 0
  %20 = load ptr, ptr %19, align 8, !tbaa !15
  %21 = load ptr, ptr %5, align 8, !tbaa !13
  %22 = icmp ne ptr %20, %21
  %23 = zext i1 %22 to i8
  store i8 %23, ptr %18, align 8, !tbaa !18
  ret void
}