; Function Attrs: mustprogress uwtable
define dso_local void @_ZN3ozz3log6LoggerC2ERSoNS0_5LevelE(ptr noundef nonnull writeonly align 8 captures(none) dereferenceable(9) initializes((0, 9)) %0, ptr noundef nonnull align 8 dereferenceable(8) %1, i32 noundef %2) unnamed_addr #5 align 2 {
  %4 = load i32, ptr @_ZN3ozz3log12_GLOBAL__N_19log_levelE, align 4, !tbaa !4
  %.not = icmp sgt i32 %2, %4
  br i1 %.not, label %5, label %11

5:                                                ; preds = %3
  %6 = tail call noundef ptr @_ZN3ozz6memory17default_allocatorEv()
  %7 = load ptr, ptr %6, align 8, !tbaa !8
  %8 = getelementptr inbounds nuw i8, ptr %7, i64 16
  %9 = load ptr, ptr %8, align 8
  %10 = tail call noundef ptr %9(ptr noundef nonnull align 8 dereferenceable(8) %6, i64 noundef 376, i64 noundef 8)
  tail call void @_ZNSt7__cxx1119basic_ostringstreamIcSt11char_traitsIcESaIcEEC1Ev(ptr noundef nonnull align 8 dereferenceable(112) %10)
  br label %11

11:                                               ; preds = %3, %5
  %12 = phi ptr [ %10, %5 ], [ %1, %3 ]
  store ptr %12, ptr %0, align 8, !tbaa !10
  %13 = getelementptr inbounds nuw i8, ptr %0, i64 8
  %14 = icmp ne ptr %12, %1
  %15 = zext i1 %14 to i8
  store i8 %15, ptr %13, align 8, !tbaa !13
  ret void
}